; Function Attrs: mustprogress uwtable
define void @_ZN9grpc_core23LegacyChannelIdleFilter12CloseChannelEv(ptr nocapture noundef nonnull readonly align 8 dereferenceable(64) %this) local_unnamed_addr #3 align 2 personality ptr @__gxx_personality_v0 {
entry:
  %ref.tmp = alloca %"class.absl::lts_20230802::Status", align 8
  %agg.tmp = alloca %"class.absl::lts_20230802::Status", align 8
  %ref.tmp3 = alloca %"class.grpc_core::DebugLocation", align 1
  %agg.tmp4 = alloca %"class.std::vector", align 8
  %call = tail call noundef ptr @_Z22grpc_make_transport_opP12grpc_closure(ptr noundef null)
  call void @llvm.memset.p0.i64(ptr noundef nonnull align 8 dereferenceable(24) %agg.tmp4, i8 0, i64 24, i1 false)
  invoke void @_ZN9grpc_core12StatusCreateEN4absl12lts_2023080210StatusCodeESt17basic_string_viewIcSt11char_traitsIcEERKNS_13DebugLocationESt6vectorINS1_6StatusESaISB_EE(ptr nonnull sret(%"class.absl::lts_20230802::Status") align 8 %agg.tmp, i32 noundef 2, i64 10, ptr nonnull @.str.4, ptr noundef nonnull align 1 dereferenceable(1) %ref.tmp3, ptr noundef nonnull %agg.tmp4)
          to label %invoke.cont unwind label %lpad

invoke.cont:                                      ; preds = %entry
  invoke void @_Z18grpc_error_set_intN4absl12lts_202308026StatusEN9grpc_core17StatusIntPropertyEl(ptr nonnull sret(%"class.absl::lts_20230802::Status") align 8 %ref.tmp, ptr noundef nonnull %agg.tmp, i32 noundef 13, i64 noundef 0)
          to label %invoke.cont6 unwind label %lpad5

invoke.cont6:                                     ; preds = %invoke.cont
  %disconnect_with_error = getelementptr inbounds i8, ptr %call, i64 24
  %0 = load i64, ptr %disconnect_with_error, align 8
  %1 = load i64, ptr %ref.tmp, align 8
  %cmp.not.i = icmp eq i64 %1, %0
  br i1 %cmp.not.i, label %invoke.cont8, label %if.then.i

if.then.i:                                        ; preds = %invoke.cont6
  store i64 %1, ptr %disconnect_with_error, align 8
  store i64 54, ptr %ref.tmp, align 8
  %and.i.i.i = and i64 %0, 1
  %cmp.i.i.i = icmp eq i64 %and.i.i.i, 0
  br i1 %cmp.i.i.i, label %_ZN4absl12lts_202308026StatusD2Ev.exit, label %if.then.i.i

if.then.i.i:                                      ; preds = %if.then.i
  invoke void @_ZN4absl12lts_202308026Status15UnrefNonInlinedEm(i64 noundef %0)
          to label %if.then.i.i.invoke.cont8_crit_edge unwind label %lpad7

if.then.i.i.invoke.cont8_crit_edge:               ; preds = %if.then.i.i
  %.pre = load i64, ptr %ref.tmp, align 8
  br label %invoke.cont8

invoke.cont8:                                     ; preds = %if.then.i.i.invoke.cont8_crit_edge, %invoke.cont6
  %2 = phi i64 [ %.pre, %if.then.i.i.invoke.cont8_crit_edge ], [ %0, %invoke.cont6 ]
  %and.i.i.i5 = and i64 %2, 1
  %cmp.i.i.i6 = icmp eq i64 %and.i.i.i5, 0
  br i1 %cmp.i.i.i6, label %_ZN4absl12lts_202308026StatusD2Ev.exit, label %if.then.i.i7

if.then.i.i7:                                     ; preds = %invoke.cont8
  invoke void @_ZN4absl12lts_202308026Status15UnrefNonInlinedEm(i64 noundef %2)
          to label %_ZN4absl12lts_202308026StatusD2Ev.exit unwind label %terminate.lpad.i

terminate.lpad.i:                                 ; preds = %if.then.i.i7
  %3 = landingpad { ptr, i32 }
          catch ptr null
  %4 = extractvalue { ptr, i32 } %3, 0
  call void @__clang_call_terminate(ptr %4) #25
  unreachable

_ZN4absl12lts_202308026StatusD2Ev.exit:           ; preds = %if.then.i, %invoke.cont8, %if.then.i.i7
  %5 = load i64, ptr %agg.tmp, align 8
  %and.i.i.i8 = and i64 %5, 1
  %cmp.i.i.i9 = icmp eq i64 %and.i.i.i8, 0
  br i1 %cmp.i.i.i9, label %_ZN4absl12lts_202308026StatusD2Ev.exit12, label %if.then.i.i10

if.then.i.i10:                                    ; preds = %_ZN4absl12lts_202308026StatusD2Ev.exit
  invoke void @_ZN4absl12lts_202308026Status15UnrefNonInlinedEm(i64 noundef %5)
          to label %_ZN4absl12lts_202308026StatusD2Ev.exit12 unwind label %terminate.lpad.i11

terminate.lpad.i11:                               ; preds = %if.then.i.i10
  %6 = landingpad { ptr, i32 }
          catch ptr null
  %7 = extractvalue { ptr, i32 } %6, 0
  call void @__clang_call_terminate(ptr %7) #25
  unreachable

_ZN4absl12lts_202308026StatusD2Ev.exit12:         ; preds = %_ZN4absl12lts_202308026StatusD2Ev.exit, %if.then.i.i10
  %8 = load ptr, ptr %agg.tmp4, align 8
  %_M_finish.i = getelementptr inbounds i8, ptr %agg.tmp4, i64 8
  %9 = load ptr, ptr %_M_finish.i, align 8
  %cmp.not3.i.i.i.i = icmp eq ptr %8, %9
  br i1 %cmp.not3.i.i.i.i, label %invoke.cont.i, label %for.body.i.i.i.i

for.body.i.i.i.i:                                 ; preds = %_ZN4absl12lts_202308026StatusD2Ev.exit12, %_ZSt8_DestroyIN4absl12lts_202308026StatusEEvPT_.exit.i.i.i.i
  %__first.addr.04.i.i.i.i = phi ptr [ %incdec.ptr.i.i.i.i, %_ZSt8_DestroyIN4absl12lts_202308026StatusEEvPT_.exit.i.i.i.i ], [ %8, %_ZN4absl12lts_202308026StatusD2Ev.exit12 ]
  %10 = load i64, ptr %__first.addr.04.i.i.i.i, align 8
  %and.i.i.i.i.i.i.i.i = and i64 %10, 1
  %cmp.i.i.i.i.i.i.i.i = icmp eq i64 %and.i.i.i.i.i.i.i.i, 0
  br i1 %cmp.i.i.i.i.i.i.i.i, label %_ZSt8_DestroyIN4absl12lts_202308026StatusEEvPT_.exit.i.i.i.i, label %if.then.i.i.i.i.i.i.i

if.then.i.i.i.i.i.i.i:                            ; preds = %for.body.i.i.i.i
  invoke void @_ZN4absl12lts_202308026Status15UnrefNonInlinedEm(i64 noundef %10)
          to label %_ZSt8_DestroyIN4absl12lts_202308026StatusEEvPT_.exit.i.i.i.i unwind label %terminate.lpad.i.i.i.i.i.i

terminate.lpad.i.i.i.i.i.i:                       ; preds = %if.then.i.i.i.i.i.i.i
  %11 = landingpad { ptr, i32 }
          catch ptr null
  %12 = extractvalue { ptr, i32 } %11, 0
  call void @__clang_call_terminate(ptr %12) #25
  unreachable

_ZSt8_DestroyIN4absl12lts_202308026StatusEEvPT_.exit.i.i.i.i: ; preds = %if.then.i.i.i.i.i.i.i, %for.body.i.i.i.i
  %incdec.ptr.i.i.i.i = getelementptr inbounds i8, ptr %__first.addr.04.i.i.i.i, i64 8
  %cmp.not.i.i.i.i = icmp eq ptr %incdec.ptr.i.i.i.i, %9
  br i1 %cmp.not.i.i.i.i, label %invoke.contthread-pre-split.i, label %for.body.i.i.i.i, !llvm.loop !71

invoke.contthread-pre-split.i:                    ; preds = %_ZSt8_DestroyIN4absl12lts_202308026StatusEEvPT_.exit.i.i.i.i
  %.pr.i = load ptr, ptr %agg.tmp4, align 8
  br label %invoke.cont.i

invoke.cont.i:                                    ; preds = %invoke.contthread-pre-split.i, %_ZN4absl12lts_202308026StatusD2Ev.exit12
  %13 = phi ptr [ %.pr.i, %invoke.contthread-pre-split.i ], [ %8, %_ZN4absl12lts_202308026StatusD2Ev.exit12 ]
  %tobool.not.i.i.i = icmp eq ptr %13, null
  br i1 %tobool.not.i.i.i, label %_ZNSt6vectorIN4absl12lts_202308026StatusESaIS2_EED2Ev.exit, label %if.then.i.i.i

if.then.i.i.i:                                    ; preds = %invoke.cont.i
  call void @_ZdlPv(ptr noundef nonnull %13) #23
  br label %_ZNSt6vectorIN4absl12lts_202308026StatusESaIS2_EED2Ev.exit

_ZNSt6vectorIN4absl12lts_202308026StatusESaIS2_EED2Ev.exit: ; preds = %invoke.cont.i, %if.then.i.i.i
  %channel_stack_ = getelementptr inbounds i8, ptr %this, i64 24
  %14 = load ptr, ptr %channel_stack_, align 8
  %call11 = call noundef ptr @_Z26grpc_channel_stack_elementP18grpc_channel_stackm(ptr noundef %14, i64 noundef 0)
  %15 = load ptr, ptr %call11, align 8
  %start_transport_op = getelementptr inbounds i8, ptr %15, i64 24
  %16 = load ptr, ptr %start_transport_op, align 8
  call void %16(ptr noundef nonnull %call11, ptr noundef %call)
  ret void

lpad:                                             ; preds = %entry
  %17 = landingpad { ptr, i32 }
          cleanup
  br label %ehcleanup10

lpad5:                                            ; preds = %invoke.cont
  %18 = landingpad { ptr, i32 }
          cleanup
  br label %ehcleanup

lpad7:                                            ; preds = %if.then.i.i
  %19 = landingpad { ptr, i32 }
          cleanup
  call void @_ZN4absl12lts_202308026StatusD2Ev(ptr noundef nonnull align 8 dereferenceable(8) %ref.tmp) #24
  br label %ehcleanup

ehcleanup:                                        ; preds = %lpad7, %lpad5
  %.pn = phi { ptr, i32 } [ %19, %lpad7 ], [ %18, %lpad5 ]
  call void @_ZN4absl12lts_202308026StatusD2Ev(ptr noundef nonnull align 8 dereferenceable(8) %agg.tmp) #24
  br label %ehcleanup10

ehcleanup10:                                      ; preds = %ehcleanup, %lpad
  %.pn.pn = phi { ptr, i32 } [ %.pn, %ehcleanup ], [ %17, %lpad ]
  call void @_ZNSt6vectorIN4absl12lts_202308026StatusESaIS2_EED2Ev(ptr noundef nonnull align 8 dereferenceable(24) %agg.tmp4) #24
  resume { ptr, i32 } %.pn.pn
}